ARM GAS  C:\Users\caoda\AppData\Local\Temp\ccfipbJg.s 			page 1


   1              		.cpu cortex-m4
   2              		.arch armv7e-m
   3              		.fpu fpv4-sp-d16
   4              		.eabi_attribute 27, 1
   5              		.eabi_attribute 28, 1
   6              		.eabi_attribute 20, 1
   7              		.eabi_attribute 21, 1
   8              		.eabi_attribute 23, 3
   9              		.eabi_attribute 24, 1
  10              		.eabi_attribute 25, 1
  11              		.eabi_attribute 26, 1
  12              		.eabi_attribute 30, 1
  13              		.eabi_attribute 34, 1
  14              		.eabi_attribute 18, 4
  15              		.file	"CDP_GPIO.c"
  16              		.text
  17              	.Ltext0:
  18              		.cfi_sections	.debug_frame
  19              		.section	.text.GPIO_BLINK,"ax",%progbits
  20              		.align	1
  21              		.global	GPIO_BLINK
  22              		.syntax unified
  23              		.thumb
  24              		.thumb_func
  26              	GPIO_BLINK:
  27              	.LFB130:
  28              		.file 1 "Core/Src/CDP_GPIO.c"
   1:Core/Src/CDP_GPIO.c **** #include "CDP_GPIO.h"
   2:Core/Src/CDP_GPIO.c **** #include "main.h"
   3:Core/Src/CDP_GPIO.c **** 
   4:Core/Src/CDP_GPIO.c **** void GPIO_BLINK(){
  29              		.loc 1 4 18 view -0
  30              		.cfi_startproc
  31              		@ args = 0, pretend = 0, frame = 0
  32              		@ frame_needed = 0, uses_anonymous_args = 0
  33 0000 08B5     		push	{r3, lr}
  34              	.LCFI0:
  35              		.cfi_def_cfa_offset 8
  36              		.cfi_offset 3, -8
  37              		.cfi_offset 14, -4
   5:Core/Src/CDP_GPIO.c **** HAL_GPIO_TogglePin(GPIOA,GPIO_PIN_5);
  38              		.loc 1 5 1 view .LVU1
  39 0002 2021     		movs	r1, #32
  40 0004 0348     		ldr	r0, .L3
  41 0006 FFF7FEFF 		bl	HAL_GPIO_TogglePin
  42              	.LVL0:
   6:Core/Src/CDP_GPIO.c **** HAL_Delay(500);
  43              		.loc 1 6 1 view .LVU2
  44 000a 4FF4FA70 		mov	r0, #500
  45 000e FFF7FEFF 		bl	HAL_Delay
  46              	.LVL1:
   7:Core/Src/CDP_GPIO.c **** 
   8:Core/Src/CDP_GPIO.c **** }
  47              		.loc 1 8 1 is_stmt 0 view .LVU3
  48 0012 08BD     		pop	{r3, pc}
  49              	.L4:
  50              		.align	2
ARM GAS  C:\Users\caoda\AppData\Local\Temp\ccfipbJg.s 			page 2


  51              	.L3:
  52 0014 00000240 		.word	1073872896
  53              		.cfi_endproc
  54              	.LFE130:
  56              		.section	.text.GPIO_WRITE_PIN,"ax",%progbits
  57              		.align	1
  58              		.global	GPIO_WRITE_PIN
  59              		.syntax unified
  60              		.thumb
  61              		.thumb_func
  63              	GPIO_WRITE_PIN:
  64              	.LFB131:
   9:Core/Src/CDP_GPIO.c **** 
  10:Core/Src/CDP_GPIO.c **** void GPIO_WRITE_PIN()
  11:Core/Src/CDP_GPIO.c **** {
  65              		.loc 1 11 1 is_stmt 1 view -0
  66              		.cfi_startproc
  67              		@ args = 0, pretend = 0, frame = 0
  68              		@ frame_needed = 0, uses_anonymous_args = 0
  69 0000 08B5     		push	{r3, lr}
  70              	.LCFI1:
  71              		.cfi_def_cfa_offset 8
  72              		.cfi_offset 3, -8
  73              		.cfi_offset 14, -4
  12:Core/Src/CDP_GPIO.c ****     HAL_GPIO_WritePin(GPIOA,GPIO_PIN_5,GPIO_PIN_SET);
  74              		.loc 1 12 5 view .LVU5
  75 0002 0122     		movs	r2, #1
  76 0004 2021     		movs	r1, #32
  77 0006 0448     		ldr	r0, .L7
  78 0008 FFF7FEFF 		bl	HAL_GPIO_WritePin
  79              	.LVL2:
  13:Core/Src/CDP_GPIO.c ****     HAL_Delay(500);
  80              		.loc 1 13 5 view .LVU6
  81 000c 4FF4FA70 		mov	r0, #500
  82 0010 FFF7FEFF 		bl	HAL_Delay
  83              	.LVL3:
  14:Core/Src/CDP_GPIO.c **** }
  84              		.loc 1 14 1 is_stmt 0 view .LVU7
  85 0014 08BD     		pop	{r3, pc}
  86              	.L8:
  87 0016 00BF     		.align	2
  88              	.L7:
  89 0018 00000240 		.word	1073872896
  90              		.cfi_endproc
  91              	.LFE131:
  93              		.text
  94              	.Letext0:
  95              		.file 2 "c:\\users\\caoda\\onedrive\\desktop\\softwares-for-developer\\tools_vs\\gcc-arm-none-eabi
  96              		.file 3 "c:\\users\\caoda\\onedrive\\desktop\\softwares-for-developer\\tools_vs\\gcc-arm-none-eabi
  97              		.file 4 "Drivers/CMSIS/Device/ST/STM32F4xx/Include/stm32f411xe.h"
  98              		.file 5 "Drivers/STM32F4xx_HAL_Driver/Inc/stm32f4xx_hal_gpio.h"
  99              		.file 6 "Drivers/STM32F4xx_HAL_Driver/Inc/stm32f4xx_hal.h"
ARM GAS  C:\Users\caoda\AppData\Local\Temp\ccfipbJg.s 			page 3

